target datalayout = "e-m:e-p270:32:32-p271:32:32-p272:64:64-i64:64-i128:128-f80:128-n8:16:32:64-S128"
target triple = "x86_64-pc-linux-gnu"

%struct.attr_check = type { i32, i32, ptr, i32, ptr, ptr }
%struct.attr_check_item = type { ptr, ptr }

@.str = private unnamed_addr constant [47 x i8] c"invalid marker-size '%s', expecting an integer\00", align 1
@ll_merge_marker_size.check = internal global ptr null, align 8
@.str.1 = private unnamed_addr constant [21 x i8] c"conflict-marker-size\00", align 1
@.str.3 = private unnamed_addr constant [1 x i8] zeroinitializer, align 1
@git_gettext_enabled = external global i32, align 4

; Function Attrs: inlinehint nounwind uwtable
define internal ptr @_(ptr noundef %0) #3 {
  %2 = alloca ptr, align 8
  %3 = alloca ptr, align 8
  store ptr %0, ptr %3, align 8, !tbaa !11
  %4 = load ptr, ptr %3, align 8, !tbaa !11
  %5 = load i8, ptr %4, align 1, !tbaa !45
  %6 = icmp ne i8 %5, 0
  br i1 %6, label %8, label %7

7:                                                ; preds = %1
  store ptr @.str.3, ptr %2, align 8
  br label %16

8:                                                ; preds = %1
  %9 = load i32, ptr @git_gettext_enabled, align 4, !tbaa !19
  %10 = icmp ne i32 %9, 0
  br i1 %10, label %13, label %11

11:                                               ; preds = %8
  %12 = load ptr, ptr %3, align 8, !tbaa !11
  store ptr %12, ptr %2, align 8
  br label %16

13:                                               ; preds = %8
  %14 = load ptr, ptr %3, align 8, !tbaa !11
  %15 = call ptr @dcgettext(ptr noundef null, ptr noundef %14, i32 noundef 5) #10
  store ptr %15, ptr %2, align 8
  br label %16

16:                                               ; preds = %13, %11, %7
  %17 = load ptr, ptr %2, align 8
  ret ptr %17
}

; Function Attrs: inlinehint nounwind uwtable
define internal i32 @strtol_i(ptr noundef %0, i32 noundef %1, ptr noundef %2) #3 {
  %4 = alloca i32, align 4
  %5 = alloca ptr, align 8
  %6 = alloca i32, align 4
  %7 = alloca ptr, align 8
  %8 = alloca i64, align 8
  %9 = alloca ptr, align 8
  %10 = alloca i32, align 4
  store ptr %0, ptr %5, align 8, !tbaa !11
  store i32 %1, ptr %6, align 4, !tbaa !19
  store ptr %2, ptr %7, align 8, !tbaa !42
  call void @llvm.lifetime.start.p0(i64 8, ptr %8) #10
  call void @llvm.lifetime.start.p0(i64 8, ptr %9) #10
  %11 = call ptr @__errno_location() #11
  store i32 0, ptr %11, align 4, !tbaa !19
  %12 = load ptr, ptr %5, align 8, !tbaa !11
  %13 = load i32, ptr %6, align 4, !tbaa !19
  %14 = call i64 @strtol(ptr noundef %12, ptr noundef %9, i32 noundef %13) #10
  store i64 %14, ptr %8, align 8, !tbaa !44
  %15 = call ptr @__errno_location() #11
  %16 = load i32, ptr %15, align 4, !tbaa !19
  %17 = icmp ne i32 %16, 0
  br i1 %17, label %33, label %18

18:                                               ; preds = %3
  %19 = load ptr, ptr %9, align 8, !tbaa !11
  %20 = load i8, ptr %19, align 1, !tbaa !45
  %21 = sext i8 %20 to i32
  %22 = icmp ne i32 %21, 0
  br i1 %22, label %33, label %23

23:                                               ; preds = %18
  %24 = load ptr, ptr %9, align 8, !tbaa !11
  %25 = load ptr, ptr %5, align 8, !tbaa !11
  %26 = icmp eq ptr %24, %25
  br i1 %26, label %33, label %27

27:                                               ; preds = %23
  %28 = load i64, ptr %8, align 8, !tbaa !44
  %29 = trunc i64 %28 to i32
  %30 = sext i32 %29 to i64
  %31 = load i64, ptr %8, align 8, !tbaa !44
  %32 = icmp ne i64 %30, %31
  br i1 %32, label %33, label %34

33:                                               ; preds = %27, %23, %18, %3
  store i32 -1, ptr %4, align 4
  store i32 1, ptr %10, align 4
  br label %38

34:                                               ; preds = %27
  %35 = load i64, ptr %8, align 8, !tbaa !44
  %36 = trunc i64 %35 to i32
  %37 = load ptr, ptr %7, align 8, !tbaa !42
  store i32 %36, ptr %37, align 4, !tbaa !19
  store i32 0, ptr %4, align 4
  store i32 1, ptr %10, align 4
  br label %38

38:                                               ; preds = %34, %33
  call void @llvm.lifetime.end.p0(i64 8, ptr %9) #10
  call void @llvm.lifetime.end.p0(i64 8, ptr %8) #10
  %39 = load i32, ptr %4, align 4
  ret i32 %39
}

; Function Attrs: nounwind uwtable
define dso_local i32 @ll_merge_marker_size(ptr noundef %0, ptr noundef %1) #0 {
  %3 = alloca ptr, align 8
  %4 = alloca ptr, align 8
  %5 = alloca i32, align 4
  store ptr %0, ptr %3, align 8, !tbaa !15
  store ptr %1, ptr %4, align 8, !tbaa !11
  call void @llvm.lifetime.start.p0(i64 4, ptr %5) #10
  store i32 7, ptr %5, align 4, !tbaa !19
  %6 = load ptr, ptr @ll_merge_marker_size.check, align 8, !tbaa !4
  %7 = icmp ne ptr %6, null
  br i1 %7, label %10, label %8

8:                                                ; preds = %2
  %9 = call ptr (ptr, ...) @attr_check_initl(ptr noundef @.str.1, ptr noundef null)
  store ptr %9, ptr @ll_merge_marker_size.check, align 8, !tbaa !4
  br label %10

10:                                               ; preds = %8, %2
  %11 = load ptr, ptr %3, align 8, !tbaa !15
  %12 = load ptr, ptr %4, align 8, !tbaa !11
  %13 = load ptr, ptr @ll_merge_marker_size.check, align 8, !tbaa !4
  call void @git_check_attr(ptr noundef %11, ptr noundef %12, ptr noundef %13)
  %14 = load ptr, ptr @ll_merge_marker_size.check, align 8, !tbaa !4
  %15 = getelementptr inbounds nuw %struct.attr_check, ptr %14, i32 0, i32 2
  %16 = load ptr, ptr %15, align 8, !tbaa !21
  %17 = getelementptr inbounds %struct.attr_check_item, ptr %16, i64 0
  %18 = getelementptr inbounds nuw %struct.attr_check_item, ptr %17, i32 0, i32 1
  %19 = load ptr, ptr %18, align 8, !tbaa !26
  %20 = icmp ne ptr %19, null
  br i1 %20, label %21, label %43

21:                                               ; preds = %10
  %22 = load ptr, ptr @ll_merge_marker_size.check, align 8, !tbaa !4
  %23 = getelementptr inbounds nuw %struct.attr_check, ptr %22, i32 0, i32 2
  %24 = load ptr, ptr %23, align 8, !tbaa !21
  %25 = getelementptr inbounds %struct.attr_check_item, ptr %24, i64 0
  %26 = getelementptr inbounds nuw %struct.attr_check_item, ptr %25, i32 0, i32 1
  %27 = load ptr, ptr %26, align 8, !tbaa !26
  %28 = call i32 @strtol_i(ptr noundef %27, i32 noundef 10, ptr noundef %5)
  %29 = icmp ne i32 %28, 0
  br i1 %29, label %30, label %38

30:                                               ; preds = %21
  store i32 7, ptr %5, align 4, !tbaa !19
  %31 = call ptr @_(ptr noundef @.str)
  %32 = load ptr, ptr @ll_merge_marker_size.check, align 8, !tbaa !4
  %33 = getelementptr inbounds nuw %struct.attr_check, ptr %32, i32 0, i32 2
  %34 = load ptr, ptr %33, align 8, !tbaa !21
  %35 = getelementptr inbounds %struct.attr_check_item, ptr %34, i64 0
  %36 = getelementptr inbounds nuw %struct.attr_check_item, ptr %35, i32 0, i32 1
  %37 = load ptr, ptr %36, align 8, !tbaa !26
  call void (ptr, ...) @warning(ptr noundef %31, ptr noundef %37)
  br label %38

38:                                               ; preds = %30, %21
  %39 = load i32, ptr %5, align 4, !tbaa !19
  %40 = icmp sle i32 %39, 0
  br i1 %40, label %41, label %42

41:                                               ; preds = %38
  store i32 7, ptr %5, align 4, !tbaa !19
  br label %42

42:                                               ; preds = %41, %38
  br label %43

43:                                               ; preds = %42, %10
  %44 = load i32, ptr %5, align 4, !tbaa !19
  call void @llvm.lifetime.end.p0(i64 4, ptr %5) #10
  ret i32 %44
}