; Function Attrs: nounwind uwtable
define dso_local range(i32 1, -2147483648) i32 @ll_merge_marker_size(ptr noundef %0, ptr noundef %1) local_unnamed_addr #0 {
  %3 = alloca ptr, align 8
  %4 = load ptr, ptr @ll_merge_marker_size.check, align 8, !tbaa !4
  %.not = icmp eq ptr %4, null
  br i1 %.not, label %5, label %7

5:                                                ; preds = %2
  %6 = tail call ptr (ptr, ...) @attr_check_initl(ptr noundef nonnull @.str.1, ptr noundef null) #15
  store ptr %6, ptr @ll_merge_marker_size.check, align 8, !tbaa !4
  br label %7

7:                                                ; preds = %5, %2
  %8 = phi ptr [ %6, %5 ], [ %4, %2 ]
  tail call void @git_check_attr(ptr noundef %0, ptr noundef %1, ptr noundef %8) #15
  %9 = load ptr, ptr @ll_merge_marker_size.check, align 8, !tbaa !4
  %10 = getelementptr inbounds nuw i8, ptr %9, i64 8
  %11 = load ptr, ptr %10, align 8, !tbaa !16
  %12 = getelementptr inbounds nuw i8, ptr %11, i64 8
  %13 = load ptr, ptr %12, align 8, !tbaa !22
  %.not2 = icmp eq ptr %13, null
  br i1 %.not2, label %35, label %14

14:                                               ; preds = %7
  call void @llvm.lifetime.start.p0(i64 8, ptr nonnull %3) #15
  %15 = tail call ptr @__errno_location() #16
  store i32 0, ptr %15, align 4, !tbaa !25
  %16 = call i64 @strtol(ptr noundef nonnull %13, ptr noundef nonnull %3, i32 noundef 10) #15
  %17 = load i32, ptr %15, align 4, !tbaa !25
  %.not.i = icmp eq i32 %17, 0
  br i1 %.not.i, label %18, label %23

18:                                               ; preds = %14
  %19 = load ptr, ptr %3, align 8, !tbaa !26
  %20 = load i8, ptr %19, align 1, !tbaa !27
  %.not7.i = icmp eq i8 %20, 0
  %21 = icmp ne ptr %19, %13
  %or.cond.not11.i = and i1 %21, %.not7.i
  %22 = add i64 %16, 2147483648
  %.not8.i = icmp ult i64 %22, 4294967296
  %or.cond9.i = select i1 %or.cond.not11.i, i1 %.not8.i, i1 false
  br i1 %or.cond9.i, label %32, label %23

23:                                               ; preds = %18, %14
  call void @llvm.lifetime.end.p0(i64 8, ptr nonnull %3) #15
  %24 = load i32, ptr @git_gettext_enabled, align 4, !tbaa !25
  %.not.i4 = icmp eq i32 %24, 0
  br i1 %.not.i4, label %.thread, label %25

25:                                               ; preds = %23
  %26 = tail call ptr @dcgettext(ptr noundef null, ptr noundef nonnull @.str, i32 noundef 5) #15
  br label %.thread

.thread:                                          ; preds = %25, %23
  %.0.i5 = phi ptr [ %26, %25 ], [ @.str, %23 ]
  %27 = load ptr, ptr @ll_merge_marker_size.check, align 8, !tbaa !4
  %28 = getelementptr inbounds nuw i8, ptr %27, i64 8
  %29 = load ptr, ptr %28, align 8, !tbaa !16
  %30 = getelementptr inbounds nuw i8, ptr %29, i64 8
  %31 = load ptr, ptr %30, align 8, !tbaa !22
  tail call void (ptr, ...) @warning(ptr noundef %.0.i5, ptr noundef %31) #15
  br label %35

32:                                               ; preds = %18
  %33 = trunc i64 %16 to i32
  call void @llvm.lifetime.end.p0(i64 8, ptr nonnull %3) #15
  %34 = icmp slt i32 %33, 1
  %spec.select = select i1 %34, i32 7, i32 %33
  br label %35

35:                                               ; preds = %32, %.thread, %7
  %.0 = phi i32 [ 7, %7 ], [ 7, %.thread ], [ %spec.select, %32 ]
  ret i32 %.0
}